target datalayout = "e-m:e-p270:32:32-p271:32:32-p272:64:64-i64:64-i128:128-f80:128-n8:16:32:64-S128"
target triple = "x86_64-pc-linux-gnu"

%struct.PgStat_BgWriterStats = type { i64, i64, i64, i64 }
%struct.PgStat_LocalState = type { ptr, ptr, ptr, %struct.PgStat_Snapshot }
%struct.PgStat_Snapshot = type { i32, i64, [13 x i8], %struct.PgStat_ArchiverStats, %struct.PgStat_BgWriterStats, %struct.PgStat_CheckpointerStats, %struct.PgStat_IO, [8 x %struct.PgStat_SLRUStats], %struct.PgStat_WalStats, [129 x i8], [129 x ptr], ptr, ptr }
%struct.PgStat_ArchiverStats = type { i64, [41 x i8], i64, i64, [41 x i8], i64, i64 }
%struct.PgStat_CheckpointerStats = type { i64, i64, i64, i64, i64, i64, i64, i64, i64, i64, i64 }
%struct.PgStat_IO = type { i64, [17 x %struct.PgStat_BktypeIO] }
%struct.PgStat_BktypeIO = type { [3 x [5 x [8 x i64]]], [3 x [5 x [8 x i64]]], [3 x [5 x [8 x i64]]] }
%struct.PgStat_SLRUStats = type { i64, i64, i64, i64, i64, i64, i64, i64 }
%struct.PgStat_WalStats = type { i64, i64, i64, i64, i64, i64, i64, i64, i64 }
%struct.PgStat_ShmemControl = type { ptr, i64, i8, %struct.pg_atomic_uint64, %struct.PgStatShared_Archiver, %struct.PgStatShared_BgWriter, %struct.PgStatShared_Checkpointer, %struct.PgStatShared_IO, %struct.PgStatShared_SLRU, %struct.PgStatShared_Wal, [129 x ptr] }
%struct.pg_atomic_uint64 = type { i64 }
%struct.PgStatShared_Archiver = type { %struct.LWLock, i32, %struct.PgStat_ArchiverStats, %struct.PgStat_ArchiverStats }
%struct.LWLock = type { i16, %struct.pg_atomic_uint32, %struct.proclist_head }
%struct.pg_atomic_uint32 = type { i32 }
%struct.proclist_head = type { i32, i32 }
%struct.PgStatShared_BgWriter = type { %struct.LWLock, i32, %struct.PgStat_BgWriterStats, %struct.PgStat_BgWriterStats }
%struct.PgStatShared_Checkpointer = type { %struct.LWLock, i32, %struct.PgStat_CheckpointerStats, %struct.PgStat_CheckpointerStats }
%struct.PgStatShared_IO = type { [17 x %struct.LWLock], %struct.PgStat_IO }
%struct.PgStatShared_SLRU = type { %struct.LWLock, [8 x %struct.PgStat_SLRUStats] }
%struct.PgStatShared_Wal = type { %struct.LWLock, %struct.PgStat_WalStats }

@pgStatLocal = external global %struct.PgStat_LocalState, align 8
@InterruptPending = external global i32, align 4

; Function Attrs: inlinehint nounwind uwtable
define internal zeroext i1 @pgstat_end_changecount_read(ptr noundef %0, i32 noundef %1) #2 {
  %3 = alloca i1, align 1
  %4 = alloca ptr, align 8
  %5 = alloca i32, align 4
  %6 = alloca i32, align 4
  %7 = alloca i32, align 4
  store ptr %0, ptr %4, align 8
  store i32 %1, ptr %5, align 4
  call void @llvm.lifetime.start.p0(i64 4, ptr %6) #7
  call void asm sideeffect "", "~{memory},~{dirflag},~{fpsr},~{flags}"() #7, !srcloc !18
  %8 = load ptr, ptr %4, align 8
  %9 = load i32, ptr %8, align 4
  store i32 %9, ptr %6, align 4
  %10 = load i32, ptr %5, align 4
  %11 = and i32 %10, 1
  %12 = icmp ne i32 %11, 0
  br i1 %12, label %13, label %14

13:                                               ; preds = %2
  store i1 false, ptr %3, align 1
  store i32 1, ptr %7, align 4
  br label %18

14:                                               ; preds = %2
  %15 = load i32, ptr %5, align 4
  %16 = load i32, ptr %6, align 4
  %17 = icmp eq i32 %15, %16
  store i1 %17, ptr %3, align 1
  store i32 1, ptr %7, align 4
  br label %18

18:                                               ; preds = %14, %13
  call void @llvm.lifetime.end.p0(i64 4, ptr %6) #7
  %19 = load i1, ptr %3, align 1
  ret i1 %19
}

; Function Attrs: inlinehint nounwind uwtable
define internal i32 @pgstat_begin_changecount_read(ptr noundef %0) #2 {
  %2 = alloca ptr, align 8
  %3 = alloca i32, align 4
  store ptr %0, ptr %2, align 8
  call void @llvm.lifetime.start.p0(i64 4, ptr %3) #7
  %4 = load ptr, ptr %2, align 8
  %5 = load i32, ptr %4, align 4
  store i32 %5, ptr %3, align 4
  br label %6

6:                                                ; preds = %1
  %7 = load volatile i32, ptr @InterruptPending, align 4
  %8 = icmp ne i32 %7, 0
  %9 = zext i1 %8 to i32
  %10 = sext i32 %9 to i64
  %11 = call i64 @llvm.expect.i64(i64 %10, i64 0)
  %12 = icmp ne i64 %11, 0
  br i1 %12, label %13, label %14

13:                                               ; preds = %6
  call void @ProcessInterrupts()
  br label %14

14:                                               ; preds = %13, %6
  br label %15

15:                                               ; preds = %14
  br label %16

16:                                               ; preds = %15
  call void asm sideeffect "", "~{memory},~{dirflag},~{fpsr},~{flags}"() #7, !srcloc !17
  %17 = load i32, ptr %3, align 4
  call void @llvm.lifetime.end.p0(i64 4, ptr %3) #7
  ret i32 %17
}

; Function Attrs: inlinehint nounwind uwtable
define internal void @pgstat_copy_changecounted_stats(ptr noundef %0, ptr noundef %1, i64 noundef %2, ptr noundef %3) #2 {
  %5 = alloca ptr, align 8
  %6 = alloca ptr, align 8
  %7 = alloca i64, align 8
  %8 = alloca ptr, align 8
  %9 = alloca i32, align 4
  store ptr %0, ptr %5, align 8
  store ptr %1, ptr %6, align 8
  store i64 %2, ptr %7, align 8
  store ptr %3, ptr %8, align 8
  call void @llvm.lifetime.start.p0(i64 4, ptr %9) #7
  br label %10

10:                                               ; preds = %16, %4
  %11 = load ptr, ptr %8, align 8
  %12 = call i32 @pgstat_begin_changecount_read(ptr noundef %11)
  store i32 %12, ptr %9, align 4
  %13 = load ptr, ptr %5, align 8
  %14 = load ptr, ptr %6, align 8
  %15 = load i64, ptr %7, align 8
  call void @llvm.memcpy.p0.p0.i64(ptr align 1 %13, ptr align 1 %14, i64 %15, i1 false)
  br label %16

16:                                               ; preds = %10
  %17 = load ptr, ptr %8, align 8
  %18 = load i32, ptr %9, align 4
  %19 = call zeroext i1 @pgstat_end_changecount_read(ptr noundef %17, i32 noundef %18)
  %20 = xor i1 %19, true
  br i1 %20, label %10, label %21, !llvm.loop !16

21:                                               ; preds = %16
  call void @llvm.lifetime.end.p0(i64 4, ptr %9) #7
  ret void
}

; Function Attrs: nounwind uwtable
define dso_local void @pgstat_bgwriter_reset_all_cb(i64 noundef %0) #0 {
  %2 = alloca i64, align 8
  %3 = alloca ptr, align 8
  store i64 %0, ptr %2, align 8
  call void @llvm.lifetime.start.p0(i64 8, ptr %3) #7
  %4 = load ptr, ptr @pgStatLocal, align 8
  %5 = getelementptr inbounds nuw %struct.PgStat_ShmemControl, ptr %4, i32 0, i32 5
  store ptr %5, ptr %3, align 8
  %6 = load ptr, ptr %3, align 8
  %7 = getelementptr inbounds nuw %struct.PgStatShared_BgWriter, ptr %6, i32 0, i32 0
  %8 = call zeroext i1 @LWLockAcquire(ptr noundef %7, i32 noundef 0)
  %9 = load ptr, ptr %3, align 8
  %10 = getelementptr inbounds nuw %struct.PgStatShared_BgWriter, ptr %9, i32 0, i32 3
  %11 = load ptr, ptr %3, align 8
  %12 = getelementptr inbounds nuw %struct.PgStatShared_BgWriter, ptr %11, i32 0, i32 2
  %13 = load ptr, ptr %3, align 8
  %14 = getelementptr inbounds nuw %struct.PgStatShared_BgWriter, ptr %13, i32 0, i32 1
  call void @pgstat_copy_changecounted_stats(ptr noundef %10, ptr noundef %12, i64 noundef 32, ptr noundef %14)
  %15 = load i64, ptr %2, align 8
  %16 = load ptr, ptr %3, align 8
  %17 = getelementptr inbounds nuw %struct.PgStatShared_BgWriter, ptr %16, i32 0, i32 2
  %18 = getelementptr inbounds nuw %struct.PgStat_BgWriterStats, ptr %17, i32 0, i32 3
  store i64 %15, ptr %18, align 8
  %19 = load ptr, ptr %3, align 8
  %20 = getelementptr inbounds nuw %struct.PgStatShared_BgWriter, ptr %19, i32 0, i32 0
  call void @LWLockRelease(ptr noundef %20)
  call void @llvm.lifetime.end.p0(i64 8, ptr %3) #7
  ret void
}